target datalayout = "e-m:e-p270:32:32-p271:32:32-p272:64:64-i64:64-i128:128-f80:128-n8:16:32:64-S128"
target triple = "x86_64-pc-linux-gnu"

%struct.string_list = type { ptr, i64, i64, i8, ptr }
%struct.string_list_item = type { ptr, ptr }

; Function Attrs: nounwind uwtable
define dso_local void @string_list_remove_duplicates(ptr noundef %0, i32 noundef %1) #0 {
  %3 = alloca ptr, align 8
  %4 = alloca i32, align 4
  %5 = alloca i32, align 4
  %6 = alloca i32, align 4
  %7 = alloca ptr, align 8
  store ptr %0, ptr %3, align 8, !tbaa !4
  store i32 %1, ptr %4, align 4, !tbaa !11
  %8 = load ptr, ptr %3, align 8, !tbaa !4
  %9 = getelementptr inbounds nuw %struct.string_list, ptr %8, i32 0, i32 1
  %10 = load i64, ptr %9, align 8, !tbaa !17
  %11 = icmp ugt i64 %10, 1
  br i1 %11, label %12, label %104

12:                                               ; preds = %2
  call void @llvm.lifetime.start.p0(i64 4, ptr %5) #9
  call void @llvm.lifetime.start.p0(i64 4, ptr %6) #9
  call void @llvm.lifetime.start.p0(i64 8, ptr %7) #9
  %13 = load ptr, ptr %3, align 8, !tbaa !4
  %14 = getelementptr inbounds nuw %struct.string_list, ptr %13, i32 0, i32 4
  %15 = load ptr, ptr %14, align 8, !tbaa !24
  %16 = icmp ne ptr %15, null
  br i1 %16, label %17, label %21

17:                                               ; preds = %12
  %18 = load ptr, ptr %3, align 8, !tbaa !4
  %19 = getelementptr inbounds nuw %struct.string_list, ptr %18, i32 0, i32 4
  %20 = load ptr, ptr %19, align 8, !tbaa !24
  br label %22

21:                                               ; preds = %12
  br label %22

22:                                               ; preds = %21, %17
  %23 = phi ptr [ %20, %17 ], [ @strcmp, %21 ]
  store ptr %23, ptr %7, align 8, !tbaa !25
  store i32 1, ptr %6, align 4, !tbaa !11
  store i32 1, ptr %5, align 4, !tbaa !11
  br label %24

24:                                               ; preds = %96, %22
  %25 = load i32, ptr %5, align 4, !tbaa !11
  %26 = sext i32 %25 to i64
  %27 = load ptr, ptr %3, align 8, !tbaa !4
  %28 = getelementptr inbounds nuw %struct.string_list, ptr %27, i32 0, i32 1
  %29 = load i64, ptr %28, align 8, !tbaa !17
  %30 = icmp ult i64 %26, %29
  br i1 %30, label %31, label %99

31:                                               ; preds = %24
  %32 = load ptr, ptr %7, align 8, !tbaa !25
  %33 = load ptr, ptr %3, align 8, !tbaa !4
  %34 = getelementptr inbounds nuw %struct.string_list, ptr %33, i32 0, i32 0
  %35 = load ptr, ptr %34, align 8, !tbaa !13
  %36 = load i32, ptr %6, align 4, !tbaa !11
  %37 = sub nsw i32 %36, 1
  %38 = sext i32 %37 to i64
  %39 = getelementptr inbounds %struct.string_list_item, ptr %35, i64 %38
  %40 = getelementptr inbounds nuw %struct.string_list_item, ptr %39, i32 0, i32 0
  %41 = load ptr, ptr %40, align 8, !tbaa !19
  %42 = load ptr, ptr %3, align 8, !tbaa !4
  %43 = getelementptr inbounds nuw %struct.string_list, ptr %42, i32 0, i32 0
  %44 = load ptr, ptr %43, align 8, !tbaa !13
  %45 = load i32, ptr %5, align 4, !tbaa !11
  %46 = sext i32 %45 to i64
  %47 = getelementptr inbounds %struct.string_list_item, ptr %44, i64 %46
  %48 = getelementptr inbounds nuw %struct.string_list_item, ptr %47, i32 0, i32 0
  %49 = load ptr, ptr %48, align 8, !tbaa !19
  %50 = call i32 %32(ptr noundef %41, ptr noundef %49)
  %51 = icmp ne i32 %50, 0
  br i1 %51, label %81, label %52

52:                                               ; preds = %31
  %53 = load ptr, ptr %3, align 8, !tbaa !4
  %54 = getelementptr inbounds nuw %struct.string_list, ptr %53, i32 0, i32 3
  %55 = load i8, ptr %54, align 8
  %56 = and i8 %55, 1
  %57 = zext i8 %56 to i32
  %58 = icmp ne i32 %57, 0
  br i1 %58, label %59, label %68

59:                                               ; preds = %52
  %60 = load ptr, ptr %3, align 8, !tbaa !4
  %61 = getelementptr inbounds nuw %struct.string_list, ptr %60, i32 0, i32 0
  %62 = load ptr, ptr %61, align 8, !tbaa !13
  %63 = load i32, ptr %5, align 4, !tbaa !11
  %64 = sext i32 %63 to i64
  %65 = getelementptr inbounds %struct.string_list_item, ptr %62, i64 %64
  %66 = getelementptr inbounds nuw %struct.string_list_item, ptr %65, i32 0, i32 0
  %67 = load ptr, ptr %66, align 8, !tbaa !19
  call void @free(ptr noundef %67) #9
  br label %68

68:                                               ; preds = %59, %52
  %69 = load i32, ptr %4, align 4, !tbaa !11
  %70 = icmp ne i32 %69, 0
  br i1 %70, label %71, label %80

71:                                               ; preds = %68
  %72 = load ptr, ptr %3, align 8, !tbaa !4
  %73 = getelementptr inbounds nuw %struct.string_list, ptr %72, i32 0, i32 0
  %74 = load ptr, ptr %73, align 8, !tbaa !13
  %75 = load i32, ptr %5, align 4, !tbaa !11
  %76 = sext i32 %75 to i64
  %77 = getelementptr inbounds %struct.string_list_item, ptr %74, i64 %76
  %78 = getelementptr inbounds nuw %struct.string_list_item, ptr %77, i32 0, i32 1
  %79 = load ptr, ptr %78, align 8, !tbaa !21
  call void @free(ptr noundef %79) #9
  br label %80

80:                                               ; preds = %71, %68
  br label %95

81:                                               ; preds = %31
  %82 = load ptr, ptr %3, align 8, !tbaa !4
  %83 = getelementptr inbounds nuw %struct.string_list, ptr %82, i32 0, i32 0
  %84 = load ptr, ptr %83, align 8, !tbaa !13
  %85 = load i32, ptr %6, align 4, !tbaa !11
  %86 = add nsw i32 %85, 1
  store i32 %86, ptr %6, align 4, !tbaa !11
  %87 = sext i32 %85 to i64
  %88 = getelementptr inbounds %struct.string_list_item, ptr %84, i64 %87
  %89 = load ptr, ptr %3, align 8, !tbaa !4
  %90 = getelementptr inbounds nuw %struct.string_list, ptr %89, i32 0, i32 0
  %91 = load ptr, ptr %90, align 8, !tbaa !13
  %92 = load i32, ptr %5, align 4, !tbaa !11
  %93 = sext i32 %92 to i64
  %94 = getelementptr inbounds %struct.string_list_item, ptr %91, i64 %93
  call void @llvm.memcpy.p0.p0.i64(ptr align 8 %88, ptr align 8 %94, i64 16, i1 false), !tbaa.struct !29
  br label %95

95:                                               ; preds = %81, %80
  br label %96

96:                                               ; preds = %95
  %97 = load i32, ptr %5, align 4, !tbaa !11
  %98 = add nsw i32 %97, 1
  store i32 %98, ptr %5, align 4, !tbaa !11
  br label %24, !llvm.loop !30

99:                                               ; preds = %24
  %100 = load i32, ptr %6, align 4, !tbaa !11
  %101 = sext i32 %100 to i64
  %102 = load ptr, ptr %3, align 8, !tbaa !4
  %103 = getelementptr inbounds nuw %struct.string_list, ptr %102, i32 0, i32 1
  store i64 %101, ptr %103, align 8, !tbaa !17
  call void @llvm.lifetime.end.p0(i64 8, ptr %7) #9
  call void @llvm.lifetime.end.p0(i64 4, ptr %6) #9
  call void @llvm.lifetime.end.p0(i64 4, ptr %5) #9
  br label %104

104:                                              ; preds = %99, %2
  ret void
}