; Function Attrs: nounwind uwtable
define dso_local void @string_list_remove_duplicates(ptr noundef captures(none) %0, i32 noundef %1) local_unnamed_addr #4 {
  %3 = getelementptr inbounds nuw i8, ptr %0, i64 8
  %4 = load i64, ptr %3, align 8, !tbaa !4
  %5 = icmp ugt i64 %4, 1
  br i1 %5, label %.lr.ph, label %60

.lr.ph:                                           ; preds = %2
  %6 = getelementptr inbounds nuw i8, ptr %0, i64 32
  %7 = load ptr, ptr %6, align 8, !tbaa !12
  %.not = icmp eq ptr %7, null
  %spec.select = select i1 %.not, ptr @strcmp, ptr %7
  %8 = getelementptr inbounds nuw i8, ptr %0, i64 24
  %.not27 = icmp eq i32 %1, 0
  br i1 %.not27, label %.lr.ph.split.us, label %.lr.ph.split

.lr.ph.split.us:                                  ; preds = %.lr.ph, %29
  %indvars.iv32 = phi i64 [ %indvars.iv.next33, %29 ], [ 1, %.lr.ph ]
  %.02228.us = phi i32 [ %.1.us, %29 ], [ 1, %.lr.ph ]
  %9 = load ptr, ptr %0, align 8, !tbaa !13
  %10 = sext i32 %.02228.us to i64
  %11 = getelementptr %struct.string_list_item, ptr %9, i64 %10
  %12 = getelementptr i8, ptr %11, i64 -16
  %13 = load ptr, ptr %12, align 8, !tbaa !14
  %14 = getelementptr inbounds nuw %struct.string_list_item, ptr %9, i64 %indvars.iv32
  %15 = load ptr, ptr %14, align 8, !tbaa !14
  %16 = tail call i32 %spec.select(ptr noundef %13, ptr noundef %15) #11
  %.not25.us = icmp eq i32 %16, 0
  br i1 %.not25.us, label %22, label %17

17:                                               ; preds = %.lr.ph.split.us
  %18 = load ptr, ptr %0, align 8, !tbaa !13
  %19 = add nsw i32 %.02228.us, 1
  %20 = getelementptr inbounds %struct.string_list_item, ptr %18, i64 %10
  %21 = getelementptr inbounds nuw %struct.string_list_item, ptr %18, i64 %indvars.iv32
  tail call void @llvm.memcpy.p0.p0.i64(ptr noundef nonnull align 8 dereferenceable(16) %20, ptr noundef nonnull align 8 dereferenceable(16) %21, i64 16, i1 false), !tbaa.struct !21
  br label %29

22:                                               ; preds = %.lr.ph.split.us
  %23 = load i8, ptr %8, align 8
  %24 = and i8 %23, 1
  %.not26.us = icmp eq i8 %24, 0
  br i1 %.not26.us, label %29, label %25

25:                                               ; preds = %22
  %26 = load ptr, ptr %0, align 8, !tbaa !13
  %27 = getelementptr inbounds nuw %struct.string_list_item, ptr %26, i64 %indvars.iv32
  %28 = load ptr, ptr %27, align 8, !tbaa !14
  tail call void @free(ptr noundef %28) #11
  br label %29

29:                                               ; preds = %22, %25, %17
  %.1.us = phi i32 [ %19, %17 ], [ %.02228.us, %25 ], [ %.02228.us, %22 ]
  %indvars.iv.next33 = add nuw nsw i64 %indvars.iv32, 1
  %30 = load i64, ptr %3, align 8, !tbaa !4
  %31 = icmp ugt i64 %30, %indvars.iv.next33
  br i1 %31, label %.lr.ph.split.us, label %._crit_edge, !llvm.loop !24

.lr.ph.split:                                     ; preds = %.lr.ph, %56
  %indvars.iv = phi i64 [ %indvars.iv.next, %56 ], [ 1, %.lr.ph ]
  %.02228 = phi i32 [ %.1, %56 ], [ 1, %.lr.ph ]
  %32 = load ptr, ptr %0, align 8, !tbaa !13
  %33 = sext i32 %.02228 to i64
  %34 = getelementptr %struct.string_list_item, ptr %32, i64 %33
  %35 = getelementptr i8, ptr %34, i64 -16
  %36 = load ptr, ptr %35, align 8, !tbaa !14
  %37 = getelementptr inbounds nuw %struct.string_list_item, ptr %32, i64 %indvars.iv
  %38 = load ptr, ptr %37, align 8, !tbaa !14
  %39 = tail call i32 %spec.select(ptr noundef %36, ptr noundef %38) #11
  %.not25 = icmp eq i32 %39, 0
  br i1 %.not25, label %40, label %51

40:                                               ; preds = %.lr.ph.split
  %41 = load i8, ptr %8, align 8
  %42 = and i8 %41, 1
  %.not26 = icmp eq i8 %42, 0
  br i1 %.not26, label %47, label %43

43:                                               ; preds = %40
  %44 = load ptr, ptr %0, align 8, !tbaa !13
  %45 = getelementptr inbounds nuw %struct.string_list_item, ptr %44, i64 %indvars.iv
  %46 = load ptr, ptr %45, align 8, !tbaa !14
  tail call void @free(ptr noundef %46) #11
  br label %47

47:                                               ; preds = %43, %40
  %48 = load ptr, ptr %0, align 8, !tbaa !13
  %49 = getelementptr inbounds nuw %struct.string_list_item, ptr %48, i64 %indvars.iv, i32 1
  %50 = load ptr, ptr %49, align 8, !tbaa !20
  tail call void @free(ptr noundef %50) #11
  br label %56

51:                                               ; preds = %.lr.ph.split
  %52 = load ptr, ptr %0, align 8, !tbaa !13
  %53 = add nsw i32 %.02228, 1
  %54 = getelementptr inbounds %struct.string_list_item, ptr %52, i64 %33
  %55 = getelementptr inbounds nuw %struct.string_list_item, ptr %52, i64 %indvars.iv
  tail call void @llvm.memcpy.p0.p0.i64(ptr noundef nonnull align 8 dereferenceable(16) %54, ptr noundef nonnull align 8 dereferenceable(16) %55, i64 16, i1 false), !tbaa.struct !21
  br label %56

56:                                               ; preds = %51, %47
  %.1 = phi i32 [ %53, %51 ], [ %.02228, %47 ]
  %indvars.iv.next = add nuw nsw i64 %indvars.iv, 1
  %57 = load i64, ptr %3, align 8, !tbaa !4
  %58 = icmp ugt i64 %57, %indvars.iv.next
  br i1 %58, label %.lr.ph.split, label %._crit_edge, !llvm.loop !24

._crit_edge:                                      ; preds = %56, %29
  %.022.lcssa = phi i32 [ %.1.us, %29 ], [ %.1, %56 ]
  %59 = sext i32 %.022.lcssa to i64
  store i64 %59, ptr %3, align 8, !tbaa !4
  br label %60

60:                                               ; preds = %._crit_edge, %2
  ret void
}